target datalayout = "e-m:e-p270:32:32-p271:32:32-p272:64:64-i64:64-i128:128-f80:128-n8:16:32:64-S128"
target triple = "x86_64-pc-linux-gnu"

@album_peak_ = internal global double 0.000000e+00, align 8

; Function Attrs: nounwind sspstrong uwtable
define dso_local void @grabbag__replaygain_get_album(ptr noundef %0, ptr noundef %1) #0 {
  %3 = alloca ptr, align 8
  %4 = alloca ptr, align 8
  store ptr %0, ptr %3, align 8, !tbaa !26
  store ptr %1, ptr %4, align 8, !tbaa !26
  %5 = call float @GetAlbumGain()
  %6 = load ptr, ptr %3, align 8, !tbaa !26
  store float %5, ptr %6, align 4, !tbaa !15
  %7 = load double, ptr @album_peak_, align 8, !tbaa !8
  %8 = fptrunc double %7 to float
  %9 = load ptr, ptr %4, align 8, !tbaa !26
  store float %8, ptr %9, align 4, !tbaa !15
  store double 0.000000e+00, ptr @album_peak_, align 8, !tbaa !8
  ret void
}